; Function Attrs: nounwind uwtable
define dso_local range(i32 0, 28) i32 @Curl_ssl_initsessions(ptr noundef captures(none) %0, i64 noundef %1) local_unnamed_addr #2 {
  %3 = getelementptr inbounds nuw i8, ptr %0, i64 3200
  %4 = load ptr, ptr %3, align 8
  %.not = icmp eq ptr %4, null
  br i1 %.not, label %5, label %11

5:                                                ; preds = %2
  %6 = load ptr, ptr @Curl_ccalloc, align 8
  %7 = tail call ptr %6(i64 noundef %1, i64 noundef 168) #18
  %.not9 = icmp eq ptr %7, null
  br i1 %.not9, label %11, label %8

8:                                                ; preds = %5
  %9 = getelementptr inbounds nuw i8, ptr %0, i64 1656
  store i64 %1, ptr %9, align 8
  store ptr %7, ptr %3, align 8
  %10 = getelementptr inbounds nuw i8, ptr %0, i64 3208
  store i64 1, ptr %10, align 8
  br label %11

11:                                               ; preds = %5, %2, %8
  %.0 = phi i32 [ 0, %8 ], [ 0, %2 ], [ 27, %5 ]
  ret i32 %.0
}